; Function Attrs: null_pointer_is_valid sspstrong uwtable
define internal i32 @dissect_header_x5chain(ptr noundef %0, ptr noundef %1, ptr noundef %2, ptr readnone captures(none) %3) #0 {
  %5 = alloca i32, align 4
  call void @llvm.lifetime.start.p0(i64 4, ptr nonnull %5) #8
  store i32 0, ptr %5, align 4
  %6 = load i32, ptr @hf_hdr_x5chain, align 4
  call fastcc void @dissect_value_cosex509(ptr noundef %0, ptr noundef %1, ptr noundef %2, i32 noundef %6, ptr noundef nonnull %5)
  %7 = load i32, ptr %5, align 4
  call void @llvm.lifetime.end.p0(i64 4, ptr nonnull %5) #8
  ret i32 %7
}